target datalayout = "e-m:e-p270:32:32-p271:32:32-p272:64:64-i64:64-i128:128-f80:128-n8:16:32:64-S128"
target triple = "x86_64-pc-linux-gnu"

%"class.std::vector.42" = type { %"struct.std::_Vector_base.43" }
%"struct.std::_Vector_base.43" = type { %"struct.std::_Vector_base<unsigned long, std::allocator<unsigned long>>::_Vector_impl" }
%"struct.std::_Vector_base<unsigned long, std::allocator<unsigned long>>::_Vector_impl" = type { %"struct.std::_Vector_base<unsigned long, std::allocator<unsigned long>>::_Vector_impl_data" }
%"struct.std::_Vector_base<unsigned long, std::allocator<unsigned long>>::_Vector_impl_data" = type { ptr, ptr, ptr }
%"struct.faiss::HNSWStats" = type { i64, i64, i64, i64 }
%"struct.faiss::HNSW" = type <{ %"class.std::vector.50", %"class.std::vector", %"class.std::vector", %"class.std::vector.42", %"class.std::vector", i32, [4 x i8], %"struct.faiss::RandomGenerator", i32, i32, i32, i8, i8, [2 x i8] }>
%"class.std::vector.50" = type { %"struct.std::_Vector_base.51" }
%"struct.std::_Vector_base.51" = type { %"struct.std::_Vector_base<double, std::allocator<double>>::_Vector_impl" }
%"struct.std::_Vector_base<double, std::allocator<double>>::_Vector_impl" = type { %"struct.std::_Vector_base<double, std::allocator<double>>::_Vector_impl_data" }
%"struct.std::_Vector_base<double, std::allocator<double>>::_Vector_impl_data" = type { ptr, ptr, ptr }
%"class.std::vector" = type { %"struct.std::_Vector_base" }
%"struct.std::_Vector_base" = type { %"struct.std::_Vector_base<int, std::allocator<int>>::_Vector_impl" }
%"struct.std::_Vector_base<int, std::allocator<int>>::_Vector_impl" = type { %"struct.std::_Vector_base<int, std::allocator<int>>::_Vector_impl_data" }
%"struct.std::_Vector_base<int, std::allocator<int>>::_Vector_impl_data" = type { ptr, ptr, ptr }
%"struct.faiss::RandomGenerator" = type { %"class.std::mersenne_twister_engine" }
%"class.std::mersenne_twister_engine" = type { [624 x i64], i64 }

; Function Attrs: mustprogress nounwind uwtable
define linkonce_odr dso_local noundef nonnull align 4 dereferenceable(4) ptr @_ZNKSt6vectorIiSaIiEEixEm(ptr noundef nonnull align 8 dereferenceable(24) %0, i64 noundef %1) #0 comdat align 2 {
  %3 = alloca ptr, align 8
  %4 = alloca i64, align 8
  store ptr %0, ptr %3, align 8, !tbaa !132
  store i64 %1, ptr %4, align 8, !tbaa !19
  %5 = load ptr, ptr %3, align 8
  %6 = getelementptr inbounds nuw %"struct.std::_Vector_base", ptr %5, i32 0, i32 0
  %7 = getelementptr inbounds nuw %"struct.std::_Vector_base<int, std::allocator<int>>::_Vector_impl_data", ptr %6, i32 0, i32 0
  %8 = load ptr, ptr %7, align 8, !tbaa !134
  %9 = load i64, ptr %4, align 8, !tbaa !19
  %10 = getelementptr inbounds nuw i32, ptr %8, i64 %9
  ret ptr %10
}

; Function Attrs: inlinehint mustprogress nounwind uwtable
define linkonce_odr dso_local void @_ZN5faiss9HNSWStatsC2Ev(ptr noundef nonnull align 8 dereferenceable(32) %0) unnamed_addr #4 comdat align 2 {
  %2 = alloca ptr, align 8
  store ptr %0, ptr %2, align 8, !tbaa !478
  %3 = load ptr, ptr %2, align 8
  %4 = getelementptr inbounds nuw %"struct.faiss::HNSWStats", ptr %3, i32 0, i32 0
  store i64 0, ptr %4, align 8, !tbaa !498
  %5 = getelementptr inbounds nuw %"struct.faiss::HNSWStats", ptr %3, i32 0, i32 1
  store i64 0, ptr %5, align 8, !tbaa !500
  %6 = getelementptr inbounds nuw %"struct.faiss::HNSWStats", ptr %3, i32 0, i32 2
  store i64 0, ptr %6, align 8, !tbaa !501
  %7 = getelementptr inbounds nuw %"struct.faiss::HNSWStats", ptr %3, i32 0, i32 3
  store i64 0, ptr %7, align 8, !tbaa !502
  ret void
}

; Function Attrs: mustprogress uwtable
define dso_local void @_Z31reference_greedy_update_nearestRKN5faiss4HNSWERNS_16DistanceComputerEiRiRf(ptr dead_on_unwind noalias writable sret(%"struct.faiss::HNSWStats") align 8 %0, ptr noundef nonnull align 8 dereferenceable(5142) %1, ptr noundef nonnull align 8 dereferenceable(8) %2, i32 noundef %3, ptr noundef nonnull align 4 dereferenceable(4) %4, ptr noundef nonnull align 4 dereferenceable(4) %5) #2 {
  %7 = alloca ptr, align 8
  %8 = alloca ptr, align 8
  %9 = alloca i32, align 4
  %10 = alloca ptr, align 8
  %11 = alloca ptr, align 8
  %12 = alloca i32, align 4
  %13 = alloca i64, align 8
  %14 = alloca i64, align 8
  %15 = alloca i64, align 8
  %16 = alloca i64, align 8
  %17 = alloca i32, align 4
  %18 = alloca i32, align 4
  %19 = alloca float, align 4
  store ptr %1, ptr %7, align 8, !tbaa !471
  store ptr %2, ptr %8, align 8, !tbaa !473
  store i32 %3, ptr %9, align 4, !tbaa !58
  store ptr %4, ptr %10, align 8, !tbaa !118
  store ptr %5, ptr %11, align 8, !tbaa !119
  call void @_ZN5faiss9HNSWStatsC2Ev(ptr noundef nonnull align 8 dereferenceable(32) %0) #6
  br label %20

20:                                               ; preds = %86, %6
  call void @llvm.lifetime.start.p0(i64 4, ptr %12) #6
  %21 = load ptr, ptr %10, align 8, !tbaa !118
  %22 = load i32, ptr %21, align 4, !tbaa !58
  store i32 %22, ptr %12, align 4, !tbaa !58
  call void @llvm.lifetime.start.p0(i64 8, ptr %13) #6
  call void @llvm.lifetime.start.p0(i64 8, ptr %14) #6
  %23 = load ptr, ptr %7, align 8, !tbaa !471
  %24 = load ptr, ptr %10, align 8, !tbaa !118
  %25 = load i32, ptr %24, align 4, !tbaa !58
  %26 = sext i32 %25 to i64
  %27 = load i32, ptr %9, align 4, !tbaa !58
  call void @_ZNK5faiss4HNSW14neighbor_rangeEliPmS1_(ptr noundef nonnull align 8 dereferenceable(5142) %23, i64 noundef %26, i32 noundef %27, ptr noundef %13, ptr noundef %14)
  call void @llvm.lifetime.start.p0(i64 8, ptr %15) #6
  store i64 0, ptr %15, align 8, !tbaa !19
  call void @llvm.lifetime.start.p0(i64 8, ptr %16) #6
  %28 = load i64, ptr %13, align 8, !tbaa !19
  store i64 %28, ptr %16, align 8, !tbaa !19
  br label %29

29:                                               ; preds = %66, %20
  %30 = load i64, ptr %16, align 8, !tbaa !19
  %31 = load i64, ptr %14, align 8, !tbaa !19
  %32 = icmp ult i64 %30, %31
  br i1 %32, label %34, label %33

33:                                               ; preds = %29
  store i32 4, ptr %17, align 4
  br label %69

34:                                               ; preds = %29
  call void @llvm.lifetime.start.p0(i64 4, ptr %18) #6
  %35 = load ptr, ptr %7, align 8, !tbaa !471
  %36 = getelementptr inbounds nuw %"struct.faiss::HNSW", ptr %35, i32 0, i32 4
  %37 = load i64, ptr %16, align 8, !tbaa !19
  %38 = call noundef nonnull align 4 dereferenceable(4) ptr @_ZNKSt6vectorIiSaIiEEixEm(ptr noundef nonnull align 8 dereferenceable(24) %36, i64 noundef %37) #6
  %39 = load i32, ptr %38, align 4, !tbaa !58
  store i32 %39, ptr %18, align 4, !tbaa !58
  %40 = load i32, ptr %18, align 4, !tbaa !58
  %41 = icmp slt i32 %40, 0
  br i1 %41, label %42, label %43

42:                                               ; preds = %34
  store i32 4, ptr %17, align 4
  br label %63

43:                                               ; preds = %34
  %44 = load i64, ptr %15, align 8, !tbaa !19
  %45 = add i64 %44, 1
  store i64 %45, ptr %15, align 8, !tbaa !19
  call void @llvm.lifetime.start.p0(i64 4, ptr %19) #6
  %46 = load ptr, ptr %8, align 8, !tbaa !473
  %47 = load i32, ptr %18, align 4, !tbaa !58
  %48 = sext i32 %47 to i64
  %49 = load ptr, ptr %46, align 8, !tbaa !59
  %50 = getelementptr inbounds ptr, ptr %49, i64 1
  %51 = load ptr, ptr %50, align 8
  %52 = call noundef float %51(ptr noundef nonnull align 8 dereferenceable(8) %46, i64 noundef %48)
  store float %52, ptr %19, align 4, !tbaa !61
  %53 = load float, ptr %19, align 4, !tbaa !61
  %54 = load ptr, ptr %11, align 8, !tbaa !119
  %55 = load float, ptr %54, align 4, !tbaa !61
  %56 = fcmp olt float %53, %55
  br i1 %56, label %57, label %62

57:                                               ; preds = %43
  %58 = load i32, ptr %18, align 4, !tbaa !58
  %59 = load ptr, ptr %10, align 8, !tbaa !118
  store i32 %58, ptr %59, align 4, !tbaa !58
  %60 = load float, ptr %19, align 4, !tbaa !61
  %61 = load ptr, ptr %11, align 8, !tbaa !119
  store float %60, ptr %61, align 4, !tbaa !61
  br label %62

62:                                               ; preds = %57, %43
  call void @llvm.lifetime.end.p0(i64 4, ptr %19) #6
  store i32 0, ptr %17, align 4
  br label %63

63:                                               ; preds = %62, %42
  call void @llvm.lifetime.end.p0(i64 4, ptr %18) #6
  %64 = load i32, ptr %17, align 4
  switch i32 %64, label %69 [
    i32 0, label %65
  ]

65:                                               ; preds = %63
  br label %66

66:                                               ; preds = %65
  %67 = load i64, ptr %16, align 8, !tbaa !19
  %68 = add i64 %67, 1
  store i64 %68, ptr %16, align 8, !tbaa !19
  br label %29, !llvm.loop !512

69:                                               ; preds = %63, %33
  call void @llvm.lifetime.end.p0(i64 8, ptr %16) #6
  br label %70

70:                                               ; preds = %69
  %71 = load i64, ptr %15, align 8, !tbaa !19
  %72 = getelementptr inbounds nuw %"struct.faiss::HNSWStats", ptr %0, i32 0, i32 2
  %73 = load i64, ptr %72, align 8, !tbaa !501
  %74 = add i64 %73, %71
  store i64 %74, ptr %72, align 8, !tbaa !501
  %75 = getelementptr inbounds nuw %"struct.faiss::HNSWStats", ptr %0, i32 0, i32 3
  %76 = load i64, ptr %75, align 8, !tbaa !502
  %77 = add i64 %76, 1
  store i64 %77, ptr %75, align 8, !tbaa !502
  %78 = load ptr, ptr %10, align 8, !tbaa !118
  %79 = load i32, ptr %78, align 4, !tbaa !58
  %80 = load i32, ptr %12, align 4, !tbaa !58
  %81 = icmp eq i32 %79, %80
  br i1 %81, label %82, label %83

82:                                               ; preds = %70
  store i32 1, ptr %17, align 4
  br label %84

83:                                               ; preds = %70
  store i32 0, ptr %17, align 4
  br label %84

84:                                               ; preds = %83, %82
  call void @llvm.lifetime.end.p0(i64 8, ptr %15) #6
  call void @llvm.lifetime.end.p0(i64 8, ptr %14) #6
  call void @llvm.lifetime.end.p0(i64 8, ptr %13) #6
  call void @llvm.lifetime.end.p0(i64 4, ptr %12) #6
  %85 = load i32, ptr %17, align 4
  switch i32 %85, label %88 [
    i32 0, label %86
    i32 1, label %87
  ]

86:                                               ; preds = %84
  br label %20, !llvm.loop !513

87:                                               ; preds = %84
  ret void

88:                                               ; preds = %84
  unreachable
}