; Function Attrs: mustprogress uwtable
define dso_local void @_Z31reference_greedy_update_nearestRKN5faiss4HNSWERNS_16DistanceComputerEiRiRf(ptr dead_on_unwind noalias writable writeonly sret(%"struct.faiss::HNSWStats") align 8 captures(none) initializes((0, 16)) %0, ptr noundef nonnull align 8 dereferenceable(5142) %1, ptr noundef nonnull align 8 dereferenceable(8) %2, i32 noundef %3, ptr noundef nonnull align 4 captures(none) dereferenceable(4) %4, ptr noundef nonnull align 4 captures(none) dereferenceable(4) %5) local_unnamed_addr #2 {
  %7 = alloca i64, align 8
  %8 = alloca i64, align 8
  tail call void @llvm.memset.p0.i64(ptr noundef nonnull align 8 dereferenceable(32) %0, i8 0, i64 16, i1 false)
  %9 = getelementptr inbounds nuw i8, ptr %1, i64 96
  %.pre = load i32, ptr %4, align 4, !tbaa !133
  br label %10

10:                                               ; preds = %._crit_edge, %6
  %11 = phi i32 [ %38, %._crit_edge ], [ %.pre, %6 ]
  %12 = phi i64 [ %37, %._crit_edge ], [ 0, %6 ]
  %13 = phi i64 [ %36, %._crit_edge ], [ 0, %6 ]
  call void @llvm.lifetime.start.p0(i64 8, ptr nonnull %7) #21
  call void @llvm.lifetime.start.p0(i64 8, ptr nonnull %8) #21
  %14 = sext i32 %11 to i64
  call void @_ZNK5faiss4HNSW14neighbor_rangeEliPmS1_(ptr noundef nonnull align 8 dereferenceable(5142) %1, i64 noundef %14, i32 noundef %3, ptr noundef nonnull %7, ptr noundef nonnull %8)
  %15 = load i64, ptr %7, align 8, !tbaa !5
  %16 = load i64, ptr %8, align 8, !tbaa !5
  %17 = icmp ult i64 %15, %16
  br i1 %17, label %.lr.ph, label %._crit_edge

.lr.ph:                                           ; preds = %10, %32
  %.030 = phi i64 [ %23, %32 ], [ 0, %10 ]
  %.02229 = phi i64 [ %33, %32 ], [ %15, %10 ]
  %18 = load ptr, ptr %9, align 8, !tbaa !138
  %19 = getelementptr inbounds nuw i32, ptr %18, i64 %.02229
  %20 = load i32, ptr %19, align 4, !tbaa !133
  %21 = icmp sgt i32 %20, -1
  br i1 %21, label %22, label %._crit_edge

22:                                               ; preds = %.lr.ph
  %23 = add i64 %.030, 1
  %24 = zext nneg i32 %20 to i64
  %25 = load ptr, ptr %2, align 8, !tbaa !44
  %26 = getelementptr inbounds nuw i8, ptr %25, i64 8
  %27 = load ptr, ptr %26, align 8
  %28 = call noundef float %27(ptr noundef nonnull align 8 dereferenceable(8) %2, i64 noundef %24)
  %29 = load float, ptr %5, align 4, !tbaa !134
  %30 = fcmp olt float %28, %29
  br i1 %30, label %31, label %32

31:                                               ; preds = %22
  store i32 %20, ptr %4, align 4, !tbaa !133
  store float %28, ptr %5, align 4, !tbaa !134
  br label %32

32:                                               ; preds = %22, %31
  %33 = add nuw i64 %.02229, 1
  %34 = load i64, ptr %8, align 8, !tbaa !5
  %35 = icmp ult i64 %33, %34
  br i1 %35, label %.lr.ph, label %._crit_edge, !llvm.loop !139

._crit_edge:                                      ; preds = %32, %.lr.ph, %10
  %.0.lcssa = phi i64 [ 0, %10 ], [ %.030, %.lr.ph ], [ %23, %32 ]
  %36 = add i64 %13, %.0.lcssa
  %37 = add i64 %12, 1
  %38 = load i32, ptr %4, align 4, !tbaa !133
  %.not = icmp eq i32 %38, %11
  call void @llvm.lifetime.end.p0(i64 8, ptr nonnull %8) #21
  call void @llvm.lifetime.end.p0(i64 8, ptr nonnull %7) #21
  br i1 %.not, label %39, label %10

39:                                               ; preds = %._crit_edge
  %40 = getelementptr inbounds nuw i8, ptr %0, i64 24
  %41 = getelementptr inbounds nuw i8, ptr %0, i64 16
  store i64 %36, ptr %41, align 8
  store i64 %37, ptr %40, align 8
  ret void
}